target datalayout = "e-m:e-p270:32:32-p271:32:32-p272:64:64-i64:64-i128:128-f80:128-n8:16:32:64-S128"
target triple = "x86_64-pc-linux-gnu"

%struct.AVFormatContext = type { ptr, ptr, ptr, ptr, ptr, i32, i32, ptr, i32, ptr, i32, ptr, ptr, i64, i64, i64, i32, i32, i32, i64, i64, ptr, i32, i32, ptr, i32, i32, i32, i32, ptr, i64, i32, i32, %struct.AVIOInterruptCB, i32, i32, i32, i32, i64, i32, i32, i32, i32, i32, i32, i32, i32, i32, i32, i32, i32, i64, i32, i32, i32, i32, i32, ptr, ptr, ptr, ptr, i32, ptr, ptr, ptr, ptr, i32, ptr, ptr, i64, ptr, ptr, ptr, i64 }
%struct.AVIOInterruptCB = type { ptr, ptr }
%struct.StrDemuxContext = type { [32 x %struct.StrChannel] }
%struct.StrChannel = type { i32, %struct.AVPacket, i32 }
%struct.AVPacket = type { ptr, i64, i64, ptr, i32, i32, i32, ptr, i32, i64, i64, ptr, ptr, %struct.AVRational }
%struct.AVRational = type { i32, i32 }

; Function Attrs: nounwind uwtable
define internal i32 @str_read_header(ptr noundef %0) #0 {
  %2 = alloca i32, align 4
  %3 = alloca ptr, align 8
  %4 = alloca ptr, align 8
  %5 = alloca ptr, align 8
  %6 = alloca [2352 x i8], align 16
  %7 = alloca i32, align 4
  %8 = alloca i32, align 4
  %9 = alloca i32, align 4
  store ptr %0, ptr %3, align 8, !tbaa !19
  call void @llvm.lifetime.start.p0(i64 8, ptr %4) #7
  %10 = load ptr, ptr %3, align 8, !tbaa !19
  %11 = getelementptr inbounds nuw %struct.AVFormatContext, ptr %10, i32 0, i32 4
  %12 = load ptr, ptr %11, align 8, !tbaa !21
  store ptr %12, ptr %4, align 8, !tbaa !36
  call void @llvm.lifetime.start.p0(i64 8, ptr %5) #7
  %13 = load ptr, ptr %3, align 8, !tbaa !19
  %14 = getelementptr inbounds nuw %struct.AVFormatContext, ptr %13, i32 0, i32 3
  %15 = load ptr, ptr %14, align 8, !tbaa !37
  store ptr %15, ptr %5, align 8, !tbaa !38
  call void @llvm.lifetime.start.p0(i64 2352, ptr %6) #7
  call void @llvm.lifetime.start.p0(i64 4, ptr %7) #7
  call void @llvm.lifetime.start.p0(i64 4, ptr %8) #7
  %16 = load ptr, ptr %4, align 8, !tbaa !36
  %17 = getelementptr inbounds [2352 x i8], ptr %6, i64 0, i64 0
  %18 = call i32 @avio_read(ptr noundef %16, ptr noundef %17, i32 noundef 44)
  %19 = icmp ne i32 %18, 44
  br i1 %19, label %20, label %21

20:                                               ; preds = %1
  store i32 -5, ptr %2, align 4
  store i32 1, ptr %9, align 4
  br label %56

21:                                               ; preds = %1
  %22 = getelementptr inbounds [2352 x i8], ptr %6, i64 0, i64 0
  %23 = load i32, ptr %22, align 16, !tbaa !16
  %24 = icmp eq i32 %23, 1179011410
  br i1 %24, label %25, label %26

25:                                               ; preds = %21
  store i32 44, ptr %7, align 4, !tbaa !15
  br label %27

26:                                               ; preds = %21
  store i32 0, ptr %7, align 4, !tbaa !15
  br label %27

27:                                               ; preds = %26, %25
  %28 = load ptr, ptr %4, align 8, !tbaa !36
  %29 = load i32, ptr %7, align 4, !tbaa !15
  %30 = sext i32 %29 to i64
  %31 = call i64 @avio_seek(ptr noundef %28, i64 noundef %30, i32 noundef 0)
  store i32 0, ptr %8, align 4, !tbaa !15
  br label %32

32:                                               ; preds = %48, %27
  %33 = load i32, ptr %8, align 4, !tbaa !15
  %34 = icmp slt i32 %33, 32
  br i1 %34, label %35, label %51

35:                                               ; preds = %32
  %36 = load ptr, ptr %5, align 8, !tbaa !38
  %37 = getelementptr inbounds nuw %struct.StrDemuxContext, ptr %36, i32 0, i32 0
  %38 = load i32, ptr %8, align 4, !tbaa !15
  %39 = sext i32 %38 to i64
  %40 = getelementptr inbounds [32 x %struct.StrChannel], ptr %37, i64 0, i64 %39
  %41 = getelementptr inbounds nuw %struct.StrChannel, ptr %40, i32 0, i32 2
  store i32 -1, ptr %41, align 8, !tbaa !40
  %42 = load ptr, ptr %5, align 8, !tbaa !38
  %43 = getelementptr inbounds nuw %struct.StrDemuxContext, ptr %42, i32 0, i32 0
  %44 = load i32, ptr %8, align 4, !tbaa !15
  %45 = sext i32 %44 to i64
  %46 = getelementptr inbounds [32 x %struct.StrChannel], ptr %43, i64 0, i64 %45
  %47 = getelementptr inbounds nuw %struct.StrChannel, ptr %46, i32 0, i32 0
  store i32 -1, ptr %47, align 8, !tbaa !46
  br label %48

48:                                               ; preds = %35
  %49 = load i32, ptr %8, align 4, !tbaa !15
  %50 = add nsw i32 %49, 1
  store i32 %50, ptr %8, align 4, !tbaa !15
  br label %32, !llvm.loop !47

51:                                               ; preds = %32
  %52 = load ptr, ptr %3, align 8, !tbaa !19
  %53 = getelementptr inbounds nuw %struct.AVFormatContext, ptr %52, i32 0, i32 5
  %54 = load i32, ptr %53, align 8, !tbaa !48
  %55 = or i32 %54, 1
  store i32 %55, ptr %53, align 8, !tbaa !48
  store i32 0, ptr %2, align 4
  store i32 1, ptr %9, align 4
  br label %56

56:                                               ; preds = %51, %20
  call void @llvm.lifetime.end.p0(i64 4, ptr %8) #7
  call void @llvm.lifetime.end.p0(i64 4, ptr %7) #7
  call void @llvm.lifetime.end.p0(i64 2352, ptr %6) #7
  call void @llvm.lifetime.end.p0(i64 8, ptr %5) #7
  call void @llvm.lifetime.end.p0(i64 8, ptr %4) #7
  %57 = load i32, ptr %2, align 4
  ret i32 %57
}