; Function Attrs: nounwind uwtable
define internal range(i32 -5, 1) i32 @str_read_header(ptr noundef captures(none) %0) #1 {
  %2 = alloca [2352 x i8], align 16
  %3 = getelementptr inbounds nuw i8, ptr %0, i64 32
  %4 = load ptr, ptr %3, align 8, !tbaa !15
  %5 = getelementptr inbounds nuw i8, ptr %0, i64 24
  %6 = load ptr, ptr %5, align 8, !tbaa !30
  call void @llvm.lifetime.start.p0(i64 2352, ptr nonnull %2) #7
  %7 = call i32 @avio_read(ptr noundef %4, ptr noundef nonnull %2, i32 noundef 44) #7
  %.not = icmp eq i32 %7, 44
  br i1 %.not, label %8, label %19

8:                                                ; preds = %1
  %9 = load i32, ptr %2, align 16, !tbaa !12
  %10 = icmp eq i32 %9, 1179011410
  %. = select i1 %10, i64 44, i64 0
  %11 = call i64 @avio_seek(ptr noundef %4, i64 noundef %., i32 noundef 0) #7
  br label %12

12:                                               ; preds = %8, %12
  %indvars.iv = phi i64 [ 0, %8 ], [ %indvars.iv.next, %12 ]
  %13 = getelementptr inbounds nuw [32 x %struct.StrChannel], ptr %6, i64 0, i64 %indvars.iv
  %14 = getelementptr inbounds nuw i8, ptr %13, i64 112
  store i32 -1, ptr %14, align 8, !tbaa !31
  store i32 -1, ptr %13, align 8, !tbaa !37
  %indvars.iv.next = add nuw nsw i64 %indvars.iv, 1
  %exitcond.not = icmp eq i64 %indvars.iv.next, 32
  br i1 %exitcond.not, label %15, label %12, !llvm.loop !38

15:                                               ; preds = %12
  %16 = getelementptr inbounds nuw i8, ptr %0, i64 40
  %17 = load i32, ptr %16, align 8, !tbaa !39
  %18 = or i32 %17, 1
  store i32 %18, ptr %16, align 8, !tbaa !39
  br label %19

19:                                               ; preds = %1, %15
  %.013 = phi i32 [ 0, %15 ], [ -5, %1 ]
  call void @llvm.lifetime.end.p0(i64 2352, ptr nonnull %2) #7
  ret i32 %.013
}